target datalayout = "e-m:e-p270:32:32-p271:32:32-p272:64:64-i64:64-i128:128-f80:128-n8:16:32:64-S128"
target triple = "x86_64-pc-linux-gnu"

%"struct.Luau::AstNameTable::Entry" = type { %"struct.Luau::AstName", i32, i32 }
%"struct.Luau::AstName" = type { ptr }

; Function Attrs: mustprogress nounwind uwtable
define dso_local noundef zeroext i1 @_ZNK4Luau12AstNameTable5EntryeqERKS1_(ptr noundef nonnull align 8 dereferenceable(16) %0, ptr noundef nonnull align 8 dereferenceable(16) %1) #2 align 2 {
  %3 = alloca ptr, align 8
  %4 = alloca ptr, align 8
  store ptr %0, ptr %3, align 8, !tbaa !41
  store ptr %1, ptr %4, align 8, !tbaa !41
  %5 = load ptr, ptr %3, align 8
  %6 = getelementptr inbounds nuw %"struct.Luau::AstNameTable::Entry", ptr %5, i32 0, i32 1
  %7 = load i32, ptr %6, align 8, !tbaa !43
  %8 = load ptr, ptr %4, align 8, !tbaa !41
  %9 = getelementptr inbounds nuw %"struct.Luau::AstNameTable::Entry", ptr %8, i32 0, i32 1
  %10 = load i32, ptr %9, align 8, !tbaa !43
  %11 = icmp eq i32 %7, %10
  br i1 %11, label %12, label %25

12:                                               ; preds = %2
  %13 = getelementptr inbounds nuw %"struct.Luau::AstNameTable::Entry", ptr %5, i32 0, i32 0
  %14 = getelementptr inbounds nuw %"struct.Luau::AstName", ptr %13, i32 0, i32 0
  %15 = load ptr, ptr %14, align 8, !tbaa !46
  %16 = load ptr, ptr %4, align 8, !tbaa !41
  %17 = getelementptr inbounds nuw %"struct.Luau::AstNameTable::Entry", ptr %16, i32 0, i32 0
  %18 = getelementptr inbounds nuw %"struct.Luau::AstName", ptr %17, i32 0, i32 0
  %19 = load ptr, ptr %18, align 8, !tbaa !46
  %20 = getelementptr inbounds nuw %"struct.Luau::AstNameTable::Entry", ptr %5, i32 0, i32 1
  %21 = load i32, ptr %20, align 8, !tbaa !43
  %22 = zext i32 %21 to i64
  %23 = call i32 @memcmp(ptr noundef %15, ptr noundef %19, i64 noundef %22) #20
  %24 = icmp eq i32 %23, 0
  br label %25

25:                                               ; preds = %12, %2
  %26 = phi i1 [ false, %2 ], [ %24, %12 ]
  ret i1 %26
}